; Function Attrs: nounwind uwtable
define hidden zeroext i1 @SDL_SetAudioStreamGetCallback_REAL(ptr noundef captures(address_is_null) %0, ptr noundef %1, ptr noundef %2) local_unnamed_addr #2 {
  %.not = icmp eq ptr %0, null
  br i1 %.not, label %4, label %6

4:                                                ; preds = %3
  %5 = tail call zeroext i1 (ptr, ...) @SDL_SetError_REAL(ptr noundef nonnull @.str, ptr noundef nonnull @.str.1) #11
  br label %11

6:                                                ; preds = %3
  %7 = load ptr, ptr %0, align 8
  tail call void @SDL_LockMutex_REAL(ptr noundef %7) #11
  %8 = getelementptr inbounds nuw i8, ptr %0, i64 16
  store ptr %1, ptr %8, align 8
  %9 = getelementptr inbounds nuw i8, ptr %0, i64 24
  store ptr %2, ptr %9, align 8
  %10 = load ptr, ptr %0, align 8
  tail call void @SDL_UnlockMutex_REAL(ptr noundef %10) #11
  br label %11

11:                                               ; preds = %6, %4
  %.0 = phi i1 [ true, %6 ], [ %5, %4 ]
  ret i1 %.0
}